target datalayout = "e-m:e-p270:32:32-p271:32:32-p272:64:64-i64:64-i128:128-f80:128-n8:16:32:64-S128"
target triple = "x86_64-pc-linux-gnu"

%"struct.std::pair" = type { double, double }
%"struct.std::pair.0" = type { float, float }
%"class.std::function" = type { %"class.std::_Function_base", ptr }
%"class.std::_Function_base" = type { %"union.std::_Any_data", ptr }
%"union.std::_Any_data" = type { %"union.std::_Nocopy_types" }
%"union.std::_Nocopy_types" = type { { i64, i64 } }

; Function Attrs: mustprogress nounwind uwtable
define linkonce_odr noundef nonnull align 8 dereferenceable(8) ptr @_ZSt3maxIdERKT_S2_S2_(ptr noundef nonnull align 8 dereferenceable(8) %0, ptr noundef nonnull align 8 dereferenceable(8) %1) #2 comdat {
  %3 = alloca ptr, align 8
  %4 = alloca ptr, align 8
  %5 = alloca ptr, align 8
  store ptr %0, ptr %4, align 8
  store ptr %1, ptr %5, align 8
  %6 = load ptr, ptr %4, align 8
  %7 = load double, ptr %6, align 8
  %8 = load ptr, ptr %5, align 8
  %9 = load double, ptr %8, align 8
  %10 = fcmp olt double %7, %9
  br i1 %10, label %11, label %13

11:                                               ; preds = %2
  %12 = load ptr, ptr %5, align 8
  store ptr %12, ptr %3, align 8
  br label %15

13:                                               ; preds = %2
  %14 = load ptr, ptr %4, align 8
  store ptr %14, ptr %3, align 8
  br label %15

15:                                               ; preds = %13, %11
  %16 = load ptr, ptr %3, align 8
  ret ptr %16
}

; Function Attrs: mustprogress nounwind uwtable
define linkonce_odr noundef double @_ZSt3absd(double noundef %0) #2 comdat {
  %2 = alloca double, align 8
  store double %0, ptr %2, align 8
  %3 = load double, ptr %2, align 8
  %4 = call double @llvm.fabs.f64(double %3)
  ret double %4
}

; Function Attrs: mustprogress nounwind uwtable
define linkonce_odr noundef float @_ZSt4sqrtf(float noundef %0) #2 comdat {
  %2 = alloca float, align 4
  store float %0, ptr %2, align 4
  %3 = load float, ptr %2, align 4
  %4 = call float @sqrtf(float noundef %3) #13
  ret float %4
}

; Function Attrs: mustprogress nounwind uwtable
define linkonce_odr noundef zeroext i1 @_ZNKSt14_Function_base8_M_emptyEv(ptr noundef nonnull align 8 dereferenceable(24) %0) #2 comdat align 2 {
  %2 = alloca ptr, align 8
  store ptr %0, ptr %2, align 8
  %3 = load ptr, ptr %2, align 8
  %4 = getelementptr inbounds %"class.std::_Function_base", ptr %3, i32 0, i32 1
  %5 = load ptr, ptr %4, align 8
  %6 = icmp ne ptr %5, null
  %7 = xor i1 %6, true
  ret i1 %7
}

; Function Attrs: mustprogress nounwind uwtable
define linkonce_odr noundef nonnull align 8 dereferenceable(8) ptr @_ZSt3minIdERKT_S2_S2_(ptr noundef nonnull align 8 dereferenceable(8) %0, ptr noundef nonnull align 8 dereferenceable(8) %1) #2 comdat {
  %3 = alloca ptr, align 8
  %4 = alloca ptr, align 8
  %5 = alloca ptr, align 8
  store ptr %0, ptr %4, align 8
  store ptr %1, ptr %5, align 8
  %6 = load ptr, ptr %5, align 8
  %7 = load double, ptr %6, align 8
  %8 = load ptr, ptr %4, align 8
  %9 = load double, ptr %8, align 8
  %10 = fcmp olt double %7, %9
  br i1 %10, label %11, label %13

11:                                               ; preds = %2
  %12 = load ptr, ptr %5, align 8
  store ptr %12, ptr %3, align 8
  br label %15

13:                                               ; preds = %2
  %14 = load ptr, ptr %4, align 8
  store ptr %14, ptr %3, align 8
  br label %15

15:                                               ; preds = %13, %11
  %16 = load ptr, ptr %3, align 8
  ret ptr %16
}

; Function Attrs: mustprogress uwtable
define internal noundef double @_ZN3gmx8internalL37quotientOfFunctionAndSecondDerivativeEdddd(double noundef %0, double noundef %1, double noundef %2, double noundef %3) #0 {
  %5 = alloca double, align 8
  %6 = alloca double, align 8
  %7 = alloca double, align 8
  %8 = alloca double, align 8
  %9 = alloca double, align 8
  %10 = alloca double, align 8
  %11 = alloca double, align 8
  %12 = alloca double, align 8
  store double %0, ptr %5, align 8
  store double %1, ptr %6, align 8
  store double %2, ptr %7, align 8
  store double %3, ptr %8, align 8
  %13 = call noundef float @_ZSt4sqrtf(float noundef 0x3810000000000000)
  %14 = fpext float %13 to double
  store double %14, ptr %9, align 8
  %15 = load double, ptr %6, align 8
  %16 = call noundef double @_ZSt3absd(double noundef %15)
  store double %16, ptr %11, align 8
  %17 = call noundef nonnull align 8 dereferenceable(8) ptr @_ZSt3maxIdERKT_S2_S2_(ptr noundef nonnull align 8 dereferenceable(8) %11, ptr noundef nonnull align 8 dereferenceable(8) %9)
  %18 = load double, ptr %17, align 8
  store double %18, ptr %10, align 8
  %19 = load double, ptr %5, align 8
  %20 = load double, ptr %6, align 8
  %21 = call double @llvm.fmuladd.f64(double -2.000000e+00, double %20, double %19)
  %22 = load double, ptr %7, align 8
  %23 = fadd double %21, %22
  %24 = load double, ptr %8, align 8
  %25 = load double, ptr %8, align 8
  %26 = fmul double %24, %25
  %27 = fdiv double %23, %26
  %28 = call noundef double @_ZSt3absd(double noundef %27)
  store double %28, ptr %12, align 8
  %29 = call noundef nonnull align 8 dereferenceable(8) ptr @_ZSt3maxIdERKT_S2_S2_(ptr noundef nonnull align 8 dereferenceable(8) %12, ptr noundef nonnull align 8 dereferenceable(8) %9)
  %30 = load double, ptr %29, align 8
  store double %30, ptr %12, align 8
  %31 = load double, ptr %10, align 8
  %32 = load double, ptr %12, align 8
  %33 = fdiv double %31, %32
  ret double %33
}

; Function Attrs: mustprogress uwtable
define linkonce_odr noundef double @_ZNKSt8functionIFddEEclEd(ptr noundef nonnull align 8 dereferenceable(32) %0, double noundef %1) #0 comdat align 2 {
  %3 = alloca ptr, align 8
  %4 = alloca double, align 8
  store ptr %0, ptr %3, align 8
  store double %1, ptr %4, align 8
  %5 = load ptr, ptr %3, align 8
  %6 = call noundef zeroext i1 @_ZNKSt14_Function_base8_M_emptyEv(ptr noundef nonnull align 8 dereferenceable(24) %5)
  br i1 %6, label %7, label %8

7:                                                ; preds = %2
  call void @_ZSt25__throw_bad_function_callv() #14
  unreachable

8:                                                ; preds = %2
  %9 = getelementptr inbounds %"class.std::function", ptr %5, i32 0, i32 1
  %10 = load ptr, ptr %9, align 8
  %11 = getelementptr inbounds %"class.std::_Function_base", ptr %5, i32 0, i32 0
  %12 = call noundef double %10(ptr noundef nonnull align 8 dereferenceable(16) %11, ptr noundef nonnull align 8 dereferenceable(8) %4)
  ret double %12
}

; Function Attrs: mustprogress nounwind uwtable
define linkonce_odr void @_ZNSt4pairIddEC2IddTnNSt9enable_ifIXaaclsr5_PCCPE22_MoveConstructiblePairIT_T0_EEclsr5_PCCPE30_ImplicitlyMoveConvertiblePairIS3_S4_EEEbE4typeELb1EEEOS3_OS4_(ptr noundef nonnull align 8 dereferenceable(16) %0, ptr noundef nonnull align 8 dereferenceable(8) %1, ptr noundef nonnull align 8 dereferenceable(8) %2) unnamed_addr #2 comdat align 2 {
  %4 = alloca ptr, align 8
  %5 = alloca ptr, align 8
  %6 = alloca ptr, align 8
  store ptr %0, ptr %4, align 8
  store ptr %1, ptr %5, align 8
  store ptr %2, ptr %6, align 8
  %7 = load ptr, ptr %4, align 8
  %8 = getelementptr inbounds %"struct.std::pair", ptr %7, i32 0, i32 0
  %9 = load ptr, ptr %5, align 8
  %10 = load double, ptr %9, align 8
  store double %10, ptr %8, align 8
  %11 = getelementptr inbounds %"struct.std::pair", ptr %7, i32 0, i32 1
  %12 = load ptr, ptr %6, align 8
  %13 = load double, ptr %12, align 8
  store double %13, ptr %11, align 8
  ret void
}

; Function Attrs: mustprogress uwtable
define noundef float @_ZN3gmx8internal49findSmallestQuotientOfFunctionAndSecondDerivativeERKSt8functionIFddEERKSt4pairIffE(ptr noundef nonnull align 8 dereferenceable(32) %0, ptr noundef nonnull align 4 dereferenceable(8) %1) #0 {
  %3 = alloca ptr, align 8
  %4 = alloca ptr, align 8
  %5 = alloca double, align 8
  %6 = alloca %"struct.std::pair", align 8
  %7 = alloca double, align 8
  %8 = alloca double, align 8
  %9 = alloca i32, align 4
  %10 = alloca double, align 8
  %11 = alloca double, align 8
  %12 = alloca double, align 8
  %13 = alloca double, align 8
  store ptr %0, ptr %3, align 8
  store ptr %1, ptr %4, align 8
  %14 = call double @pow(double noundef 0x3CB0000000000000, double noundef 2.500000e-01) #13
  store double %14, ptr %5, align 8
  %15 = load ptr, ptr %4, align 8
  %16 = getelementptr inbounds %"struct.std::pair.0", ptr %15, i32 0, i32 0
  %17 = load float, ptr %16, align 4
  %18 = fpext float %17 to double
  %19 = load double, ptr %5, align 8
  %20 = fadd double %18, %19
  store double %20, ptr %7, align 8
  %21 = load ptr, ptr %4, align 8
  %22 = getelementptr inbounds %"struct.std::pair.0", ptr %21, i32 0, i32 1
  %23 = load float, ptr %22, align 4
  %24 = fpext float %23 to double
  %25 = load double, ptr %5, align 8
  %26 = fsub double %24, %25
  store double %26, ptr %8, align 8
  call void @_ZNSt4pairIddEC2IddTnNSt9enable_ifIXaaclsr5_PCCPE22_MoveConstructiblePairIT_T0_EEclsr5_PCCPE30_ImplicitlyMoveConvertiblePairIS3_S4_EEEbE4typeELb1EEEOS3_OS4_(ptr noundef nonnull align 8 dereferenceable(16) %6, ptr noundef nonnull align 8 dereferenceable(8) %7, ptr noundef nonnull align 8 dereferenceable(8) %8)
  store i32 500, ptr %9, align 4
  %27 = getelementptr inbounds %"struct.std::pair", ptr %6, i32 0, i32 1
  %28 = load double, ptr %27, align 8
  %29 = getelementptr inbounds %"struct.std::pair", ptr %6, i32 0, i32 0
  %30 = load double, ptr %29, align 8
  %31 = fsub double %28, %30
  %32 = fdiv double %31, 5.000000e+02
  store double %32, ptr %10, align 8
  store double 0x47EFFFFFE0000000, ptr %11, align 8
  %33 = getelementptr inbounds %"struct.std::pair", ptr %6, i32 0, i32 0
  %34 = load double, ptr %33, align 8
  store double %34, ptr %12, align 8
  br label %35

35:                                               ; preds = %58, %2
  %36 = load double, ptr %12, align 8
  %37 = getelementptr inbounds %"struct.std::pair", ptr %6, i32 0, i32 1
  %38 = load double, ptr %37, align 8
  %39 = fcmp ole double %36, %38
  br i1 %39, label %40, label %62

40:                                               ; preds = %35
  %41 = load ptr, ptr %3, align 8
  %42 = load double, ptr %12, align 8
  %43 = load double, ptr %5, align 8
  %44 = fsub double %42, %43
  %45 = call noundef double @_ZNKSt8functionIFddEEclEd(ptr noundef nonnull align 8 dereferenceable(32) %41, double noundef %44)
  %46 = load ptr, ptr %3, align 8
  %47 = load double, ptr %12, align 8
  %48 = call noundef double @_ZNKSt8functionIFddEEclEd(ptr noundef nonnull align 8 dereferenceable(32) %46, double noundef %47)
  %49 = load ptr, ptr %3, align 8
  %50 = load double, ptr %12, align 8
  %51 = load double, ptr %5, align 8
  %52 = fadd double %50, %51
  %53 = call noundef double @_ZNKSt8functionIFddEEclEd(ptr noundef nonnull align 8 dereferenceable(32) %49, double noundef %52)
  %54 = load double, ptr %5, align 8
  %55 = call noundef double @_ZN3gmx8internalL37quotientOfFunctionAndSecondDerivativeEdddd(double noundef %45, double noundef %48, double noundef %53, double noundef %54)
  store double %55, ptr %13, align 8
  %56 = call noundef nonnull align 8 dereferenceable(8) ptr @_ZSt3minIdERKT_S2_S2_(ptr noundef nonnull align 8 dereferenceable(8) %11, ptr noundef nonnull align 8 dereferenceable(8) %13)
  %57 = load double, ptr %56, align 8
  store double %57, ptr %11, align 8
  br label %58

58:                                               ; preds = %40
  %59 = load double, ptr %10, align 8
  %60 = load double, ptr %12, align 8
  %61 = fadd double %60, %59
  store double %61, ptr %12, align 8
  br label %35, !llvm.loop !9

62:                                               ; preds = %35
  %63 = load double, ptr %11, align 8
  %64 = fptrunc double %63 to float
  ret float %64
}