; Function Attrs: mustprogress uwtable
define noundef float @_ZN3gmx8internal49findSmallestQuotientOfFunctionAndSecondDerivativeERKSt8functionIFddEERKSt4pairIffE(ptr noundef nonnull align 8 dereferenceable(32) %0, ptr nocapture noundef nonnull readonly align 4 dereferenceable(8) %1) local_unnamed_addr #0 {
  %3 = alloca double, align 8
  %4 = alloca double, align 8
  %5 = alloca double, align 8
  %6 = load <2 x float>, ptr %1, align 4
  %7 = fpext <2 x float> %6 to <2 x double>
  %8 = fadd <2 x double> %7, <double 0x3F20000000000000, double 0xBF20000000000000>
  %9 = extractelement <2 x double> %8, i64 0
  %10 = extractelement <2 x double> %8, i64 1
  %11 = fsub double %10, %9
  %12 = fdiv double %11, 5.000000e+02
  %13 = fcmp ugt double %9, %10
  br i1 %13, label %._crit_edge, label %.lr.ph

.lr.ph:                                           ; preds = %2
  %14 = getelementptr inbounds i8, ptr %0, i64 16
  %15 = getelementptr inbounds i8, ptr %0, i64 24
  br label %16

16:                                               ; preds = %.lr.ph, %_ZNKSt8functionIFddEEclEd.exit19
  %.029 = phi double [ %9, %.lr.ph ], [ %42, %_ZNKSt8functionIFddEEclEd.exit19 ]
  %.02428 = phi double [ 0x47EFFFFFE0000000, %.lr.ph ], [ %.sroa.speculated, %_ZNKSt8functionIFddEEclEd.exit19 ]
  %17 = fadd double %.029, 0xBF20000000000000
  call void @llvm.lifetime.start.p0(i64 8, ptr nonnull %5)
  store double %17, ptr %5, align 8
  %18 = load ptr, ptr %14, align 8
  %.not.i.i = icmp eq ptr %18, null
  br i1 %.not.i.i, label %19, label %_ZNKSt8functionIFddEEclEd.exit

19:                                               ; preds = %16
  call void @_ZSt25__throw_bad_function_callv() #17
  unreachable

_ZNKSt8functionIFddEEclEd.exit:                   ; preds = %16
  %20 = load ptr, ptr %15, align 8
  %21 = call noundef double %20(ptr noundef nonnull align 8 dereferenceable(16) %0, ptr noundef nonnull align 8 dereferenceable(8) %5)
  call void @llvm.lifetime.end.p0(i64 8, ptr nonnull %5)
  call void @llvm.lifetime.start.p0(i64 8, ptr nonnull %4)
  store double %.029, ptr %4, align 8
  %22 = load ptr, ptr %14, align 8
  %.not.i.i16 = icmp eq ptr %22, null
  br i1 %.not.i.i16, label %23, label %_ZNKSt8functionIFddEEclEd.exit17

23:                                               ; preds = %_ZNKSt8functionIFddEEclEd.exit
  call void @_ZSt25__throw_bad_function_callv() #17
  unreachable

_ZNKSt8functionIFddEEclEd.exit17:                 ; preds = %_ZNKSt8functionIFddEEclEd.exit
  %24 = load ptr, ptr %15, align 8
  %25 = call noundef double %24(ptr noundef nonnull align 8 dereferenceable(16) %0, ptr noundef nonnull align 8 dereferenceable(8) %4)
  call void @llvm.lifetime.end.p0(i64 8, ptr nonnull %4)
  %26 = fadd double %.029, 0x3F20000000000000
  call void @llvm.lifetime.start.p0(i64 8, ptr nonnull %3)
  store double %26, ptr %3, align 8
  %27 = load ptr, ptr %14, align 8
  %.not.i.i18 = icmp eq ptr %27, null
  br i1 %.not.i.i18, label %28, label %_ZNKSt8functionIFddEEclEd.exit19

28:                                               ; preds = %_ZNKSt8functionIFddEEclEd.exit17
  call void @_ZSt25__throw_bad_function_callv() #17
  unreachable

_ZNKSt8functionIFddEEclEd.exit19:                 ; preds = %_ZNKSt8functionIFddEEclEd.exit17
  %29 = load ptr, ptr %15, align 8
  %30 = call noundef double %29(ptr noundef nonnull align 8 dereferenceable(16) %0, ptr noundef nonnull align 8 dereferenceable(8) %3)
  call void @llvm.lifetime.end.p0(i64 8, ptr nonnull %3)
  %31 = call double @llvm.fmuladd.f64(double %25, double -2.000000e+00, double %21)
  %32 = fadd double %31, %30
  %33 = fmul double %32, 0x4190000000000000
  %34 = insertelement <2 x double> poison, double %25, i64 0
  %35 = insertelement <2 x double> %34, double %33, i64 1
  %36 = call <2 x double> @llvm.fabs.v2f64(<2 x double> %35)
  %37 = fcmp olt <2 x double> %36, <double 0x3C00000000000000, double 0x3C00000000000000>
  %38 = select <2 x i1> %37, <2 x double> <double 0x3C00000000000000, double 0x3C00000000000000>, <2 x double> %36
  %shift = shufflevector <2 x double> %38, <2 x double> poison, <2 x i32> <i32 1, i32 poison>
  %39 = fdiv <2 x double> %38, %shift
  %40 = extractelement <2 x double> %39, i64 0
  %41 = fcmp olt double %40, %.02428
  %.sroa.speculated = select i1 %41, double %40, double %.02428
  %42 = fadd double %12, %.029
  %43 = fcmp ugt double %42, %10
  br i1 %43, label %._crit_edge.loopexit, label %16, !llvm.loop !9

._crit_edge.loopexit:                             ; preds = %_ZNKSt8functionIFddEEclEd.exit19
  %44 = fptrunc double %.sroa.speculated to float
  br label %._crit_edge

._crit_edge:                                      ; preds = %._crit_edge.loopexit, %2
  %.024.lcssa = phi float [ 0x47EFFFFFE0000000, %2 ], [ %44, %._crit_edge.loopexit ]
  ret float %.024.lcssa
}